(dp0
S'METTS MARK'
p1
(dp2
S'to_messages'
p3
F807.0
sS'ratio_of_total_stock'
p4
F0.0013464883625988109
sS'deferral_payments'
p5
S'NaN'
p6
sS'expenses'
p7
F94299.0
sS'poi'
p8
I00
sS'long_term_incentive'
p9
S'NaN'
p10
sS'email_address'
p11
S'mark.metts@enron.com'
p12
sS'from_poi_to_this_person'
p13
F38.0
sS'deferred_income'
p14
S'NaN'
p15
sS'restricted_stock_deferred'
p16
S'NaN'
p17
sS'shared_receipt_with_poi'
p18
F702.0
sS'loan_advances'
p19
S'NaN'
p20
sS'from_messages'
p21
F29.0
sS'other'
p22
F1740.0
sS'director_fees'
p23
S'NaN'
p24
sS'bonus'
p25
F600000.0
sS'total_stock_value'
p26
F585062.0
sS'ratio_to_poi'
p27
F0.034482758620689655
sS'from_this_person_to_poi'
p28
F1.0
sS'restricted_stock'
p29
F585062.0
sS'salary'
p30
F365788.0
sS'total_payments'
p31
F1061827.0
sS'exercised_stock_options'
p32
S'NaN'
p33
sS'ratio_of_total_earning'
p34
F434509511.00531447
sS'ratio_from_poi'
p35
F0.04708798017348203
sS'ratio_of_total_payments'
p36
F0.0034265019894294552
ssS'BAXTER JOHN C'
p37
(dp38
g3
S'NaN'
p39
sg4
F0.024448850326776853
sg5
F1295738.0
sg7
F11200.0
sg8
I00
sg9
F1586055.0
sg11
S'NaN'
p40
sg13
S'NaN'
p41
sg14
F-1386055.0
sg16
g17
sg18
S'NaN'
p42
sg19
g20
sg21
S'NaN'
p43
sg22
F2660303.0
sg23
g24
sg25
F1200000.0
sg26
F10623258.0
sg27
S'NaN'
p44
sg28
S'NaN'
p45
sg29
F3942714.0
sg30
F267102.0
sg31
F5634343.0
sg32
F6680544.0
sg34
F434509511.05246305
sg35
S'NaN'
p46
sg36
F0.01818195195509996
ssS'ELLIOTT STEVEN'
p47
(dp48
g3
g39
sg4
F0.015370745244745632
sg5
g6
sg7
F78552.0
sg8
I00
sg9
g10
sg11
S'steven.elliott@enron.com'
p49
sg13
g41
sg14
F-400729.0
sg16
g17
sg18
g42
sg19
g20
sg21
g43
sg22
F12961.0
sg23
g24
sg25
F350000.0
sg26
F6678735.0
sg27
g44
sg28
g45
sg29
F1788391.0
sg30
F170941.0
sg31
F211725.0
sg32
F4890344.0
sg34
F434509511.02223545
sg35
g46
sg36
F0.0006832338353723831
ssS'CORDES WILLIAM R'
p50
(dp51
g3
F764.0
sg4
F0.0023893262948621622
sg5
g6
sg7
S'NaN'
p52
sg8
I00
sg9
g10
sg11
S'bill.cordes@enron.com'
p53
sg13
F10.0
sg14
g15
sg16
g17
sg18
F58.0
sg19
g20
sg21
F12.0
sg22
S'NaN'
p54
sg23
g24
sg25
S'NaN'
p55
sg26
F1038185.0
sg27
F0.0
sg28
F0.0
sg29
F386335.0
sg30
S'NaN'
p56
sg31
S'NaN'
p57
sg32
F651850.0
sg34
F434509511.0033502
sg35
F0.013089005235602094
sg36
F0.0
ssS'HANNON KEVIN P'
p58
(dp59
g3
F1045.0
sg4
F0.014708688390482665
sg5
g6
sg7
F34039.0
sg8
I01
sg9
F1617011.0
sg11
S'kevin.hannon@enron.com'
p60
sg13
F32.0
sg14
F-3117011.0
sg16
g17
sg18
F1035.0
sg19
g20
sg21
F32.0
sg22
F11350.0
sg23
g24
sg25
F1500000.0
sg26
F6391065.0
sg27
F0.65625
sg28
F21.0
sg29
F853064.0
sg30
F243293.0
sg31
F288682.0
sg32
F5538001.0
sg34
F434509511.0215555
sg35
F0.03062200956937799
sg36
F0.0009315730785829274
ssS'MORDAUNT KRISTINA M'
p61
(dp62
g3
g39
sg4
F0.00047987442097671365
sg5
g6
sg7
F35018.0
sg8
I00
sg9
g10
sg11
S'kristina.mordaunt@enron.com'
p63
sg13
g41
sg14
g15
sg16
g17
sg18
g42
sg19
g20
sg21
g43
sg22
F1411.0
sg23
g24
sg25
F325000.0
sg26
F208510.0
sg27
g44
sg28
g45
sg29
F208510.0
sg30
F267093.0
sg31
F628522.0
sg32
g33
sg34
F434509511.0027011
sg35
g46
sg36
F0.002028232361204019
ssS'MEYER ROCKFORD G'
p64
(dp65
g3
F232.0
sg4
F0.0021998897050610243
sg5
F1848227.0
sg7
g52
sg8
I00
sg9
g10
sg11
S'rockford.meyer@enron.com'
p66
sg13
F0.0
sg14
g15
sg16
g17
sg18
F22.0
sg19
g20
sg21
F28.0
sg22
g54
sg23
g24
sg25
g55
sg26
F955873.0
sg27
F0.0
sg28
F0.0
sg29
F462384.0
sg30
g56
sg31
F1848227.0
sg32
F493489.0
sg34
F434509511.0090488
sg35
F0.0
sg36
F0.005964204613762161
ssS'MCMAHON JEFFREY'
p67
(dp68
g3
F2355.0
sg4
F0.003826970314580755
sg5
g6
sg7
F137108.0
sg8
I00
sg9
F694862.0
sg11
S'jeffrey.mcmahon@enron.com'
p69
sg13
F58.0
sg14
g15
sg16
g17
sg18
F2228.0
sg19
g20
sg21
F48.0
sg22
F297353.0
sg23
g24
sg25
F2600000.0
sg26
F1662855.0
sg27
F0.5416666666666666
sg28
F26.0
sg29
F558801.0
sg30
F370448.0
sg31
F4099771.0
sg32
F1104054.0
sg34
F434509511.01859593
sg35
F0.024628450106157114
sg36
F0.01322990796778118
ssS'HORTON STANLEY C'
p70
(dp71
g3
F2350.0
sg4
F0.01670078057278705
sg5
F3131860.0
sg7
g52
sg8
I00
sg9
g10
sg11
S'stanley.horton@enron.com'
p72
sg13
F44.0
sg14
g15
sg16
g17
sg18
F1074.0
sg19
g20
sg21
F1073.0
sg22
g54
sg23
g24
sg25
g55
sg26
F7256648.0
sg27
F0.013979496738117428
sg28
F15.0
sg29
F2046079.0
sg30
g56
sg31
F3131860.0
sg32
F5210569.0
sg34
F434509511.03352356
sg35
F0.01872340425531915
sg36
F0.01010647169512033
ssS'PIPER GREGORY F'
p73
(dp74
g3
F1238.0
sg4
F0.002025939542667456
sg5
F1130036.0
sg7
F43057.0
sg8
I00
sg9
g10
sg11
S'greg.piper@enron.com'
p75
sg13
F61.0
sg14
F-33333.0
sg16
F-409554.0
sg18
F742.0
sg19
g20
sg21
F222.0
sg22
F778.0
sg23
g24
sg25
F400000.0
sg26
F880290.0
sg27
F0.21621621621621623
sg28
F48.0
sg29
F409554.0
sg30
F197091.0
sg31
F1737629.0
sg32
F880290.0
sg34
F434509511.008448
sg35
F0.049273021001615507
sg36
F0.005607306298851239
ssS'HUMPHREY GENE E'
p76
(dp77
g3
F128.0
sg4
F0.00525366635760477
sg5
F2964506.0
sg7
F4994.0
sg8
I00
sg9
g10
sg11
S'gene.humphrey@enron.com'
p78
sg13
F10.0
sg14
g15
sg16
g17
sg18
F119.0
sg19
g20
sg21
F17.0
sg22
g54
sg23
g24
sg25
g55
sg26
F2282768.0
sg27
F1.0
sg28
F17.0
sg29
S'NaN'
p79
sg30
F130724.0
sg31
F3100224.0
sg32
F2282768.0
sg34
F434509511.0173708
sg35
F0.078125
sg36
F0.010004382732476141
ssS'UMANOFF ADAM S'
p80
(dp81
g3
F111.0
sg4
F0.0
sg5
g6
sg7
F53122.0
sg8
I00
sg9
g10
sg11
S'adam.umanoff@enron.com'
p82
sg13
F12.0
sg14
g15
sg16
g17
sg18
F41.0
sg19
g20
sg21
F18.0
sg22
g54
sg23
g24
sg25
F788750.0
sg26
S'NaN'
p83
sg27
F0.0
sg28
F0.0
sg29
g79
sg30
F288589.0
sg31
F1130461.0
sg32
g33
sg34
F434509511.003648
sg35
F0.10810810810810811
sg36
F0.003647983019335929
ssS'BLACHMAN JEREMY M'
p84
(dp85
g3
F2475.0
sg4
F0.002196393809202487
sg5
g6
sg7
F84208.0
sg8
I00
sg9
F831809.0
sg11
S'jeremy.blachman@enron.com'
p86
sg13
F25.0
sg14
g15
sg16
g17
sg18
F2326.0
sg19
g20
sg21
F14.0
sg22
F272.0
sg23
g24
sg25
F850000.0
sg26
F954354.0
sg27
F0.14285714285714285
sg28
F2.0
sg29
F189041.0
sg30
F248546.0
sg31
F2014835.0
sg32
F765313.0
sg34
F434509511.0095815
sg35
F0.010101010101010102
sg36
F0.006501846473928518
ssS'SUNDE MARTIN'
p87
(dp88
g3
F2647.0
sg4
F0.0016085263551342609
sg5
g6
sg7
g52
sg8
I00
sg9
F476451.0
sg11
S'marty.sunde@enron.com'
p89
sg13
F37.0
sg14
g15
sg16
g17
sg18
F2565.0
sg19
g20
sg21
F38.0
sg22
F111122.0
sg23
g24
sg25
F700000.0
sg26
F698920.0
sg27
F0.34210526315789475
sg28
F13.0
sg29
F698920.0
sg30
F257486.0
sg31
F1545059.0
sg32
g33
sg34
F434509511.0072413
sg35
F0.013978088401964487
sg36
F0.00498588540062165
ssS'GIBBS DANA R'
p90
(dp91
g3
F169.0
sg4
F0.005105239226857798
sg5
F504610.0
sg7
g52
sg8
I00
sg9
F461912.0
sg11
S'dana.gibbs@enron.com'
p92
sg13
F0.0
sg14
g15
sg16
g17
sg18
F23.0
sg19
g20
sg21
F12.0
sg22
g54
sg23
g24
sg25
g55
sg26
F2218275.0
sg27
F0.0
sg28
F0.0
sg29
g79
sg30
g56
sg31
F966522.0
sg32
F2218275.0
sg34
F434509511.0102773
sg35
F0.0
sg36
F0.003118953987633895
ssS'LOWRY CHARLES P'
p93
(dp94
g3
g39
sg4
F0.0008566095576213981
sg5
g6
sg7
g52
sg8
I00
sg9
g10
sg11
g40
sg13
g41
sg14
g15
sg16
F-153686.0
sg18
g42
sg19
g20
sg21
g43
sg22
g54
sg23
g24
sg25
g55
sg26
F372205.0
sg27
g44
sg28
g45
sg29
F153686.0
sg30
g56
sg31
g57
sg32
F372205.0
sg34
F434509511.0012011
sg35
g46
sg36
F0.0
ssS'COLWELL WESLEY'
p95
(dp96
g3
F1758.0
sg4
F0.0016069659750209703
sg5
F27610.0
sg7
F16514.0
sg8
I01
sg9
g10
sg11
S'wes.colwell@enron.com'
p97
sg13
F240.0
sg14
F-144062.0
sg16
g17
sg18
F1132.0
sg19
g20
sg21
F40.0
sg22
F101740.0
sg23
g24
sg25
F1200000.0
sg26
F698242.0
sg27
F0.275
sg28
F11.0
sg29
F698242.0
sg30
F288542.0
sg31
F1490344.0
sg32
g33
sg34
F434509511.00706255
sg35
F0.13651877133105803
sg36
F0.004809320803609489
ssS'MULLER MARK S'
p98
(dp99
g3
F136.0
sg4
F0.0032607985881349328
sg5
F842924.0
sg7
g52
sg8
I00
sg9
F1725545.0
sg11
S's..muller@enron.com'
p100
sg13
F12.0
sg14
F-719000.0
sg16
g17
sg18
F114.0
sg19
g20
sg21
F16.0
sg22
F947.0
sg23
g24
sg25
F1100000.0
sg26
F1416848.0
sg27
F0.0
sg28
F0.0
sg29
F360528.0
sg30
F251654.0
sg31
F3202070.0
sg32
F1056320.0
sg34
F434509511.0149052
sg35
F0.08823529411764706
sg36
F0.010333038456634061
ssS'JACKSON CHARLENE R'
p101
(dp102
g3
F258.0
sg4
F0.0016702396187594614
sg5
g6
sg7
F10181.0
sg8
I00
sg9
g10
sg11
S'charlene.jackson@enron.com'
p103
sg13
F25.0
sg14
g15
sg16
g17
sg18
F117.0
sg19
g20
sg21
F56.0
sg22
F2435.0
sg23
g24
sg25
F250000.0
sg26
F725735.0
sg27
F0.3392857142857143
sg28
F19.0
sg29
F540672.0
sg30
F288558.0
sg31
F551174.0
sg32
F185063.0
sg34
F434509511.0041206
sg35
F0.09689922480620156
sg36
F0.0017786313660528416
ssS'WESTFAHL RICHARD K'
p104
(dp105
g3
g39
sg4
F0.0008858954528155311
sg5
g6
sg7
F51870.0
sg8
I00
sg9
F256191.0
sg11
S'dick.westfahl@enron.com'
p106
sg13
g41
sg14
F-10800.0
sg16
g17
sg18
g42
sg19
g20
sg21
g43
sg22
F401130.0
sg23
g24
sg25
g55
sg26
F384930.0
sg27
g44
sg28
g45
sg29
F384930.0
sg30
F63744.0
sg31
F762135.0
sg32
g33
sg34
F434509511.00370157
sg35
g46
sg36
F0.002459399783311046
ssS'WALTERS GARETH W'
p107
(dp108
g3
g39
sg4
F0.0023712461382692264
sg5
F53625.0
sg7
F33785.0
sg8
I00
sg9
g10
sg11
g40
sg13
g41
sg14
g15
sg16
g17
sg18
g42
sg19
g20
sg21
g43
sg22
g54
sg23
g24
sg25
g55
sg26
F1030329.0
sg27
g44
sg28
g45
sg29
g79
sg30
g56
sg31
F87410.0
sg32
F1030329.0
sg34
F434509511.0036069
sg35
g46
sg36
F0.00028207093895335933
ssS'WALLS JR ROBERT H'
p109
(dp110
g3
F671.0
sg4
F0.0135762206595289
sg5
g6
sg7
F50936.0
sg8
I00
sg9
F540751.0
sg11
S'rob.walls@enron.com'
p111
sg13
F17.0
sg14
g15
sg16
g17
sg18
F215.0
sg19
g20
sg21
F146.0
sg22
F2.0
sg23
g24
sg25
F850000.0
sg26
F5898997.0
sg27
F0.0
sg28
F0.0
sg29
F1552453.0
sg30
F357091.0
sg31
F1798780.0
sg32
F4346544.0
sg34
F434509511.02484065
sg35
F0.02533532041728763
sg36
F0.005804639784584415
ssS'KITCHEN LOUISE'
p112
(dp113
g3
F8305.0
sg4
F0.0012592198470886865
sg5
g6
sg7
F5774.0
sg8
I00
sg9
g10
sg11
S'louise.kitchen@enron.com'
p114
sg13
F251.0
sg14
g15
sg16
g17
sg18
F3669.0
sg19
g20
sg21
F1728.0
sg22
F93925.0
sg23
g24
sg25
F3100000.0
sg26
F547143.0
sg27
F0.11226851851851852
sg28
F194.0
sg29
F466101.0
sg30
F271442.0
sg31
F3471141.0
sg32
F81042.0
sg34
F434509511.01296693
sg35
F0.030222757375075255
sg36
F0.011201327091974633
ssS'CHAN RONNIE'
p115
(dp116
g3
g39
sg4
F0.0
sg5
g6
sg7
g52
sg8
I00
sg9
g10
sg11
g40
sg13
g41
sg14
F-98784.0
sg16
F-32460.0
sg18
g42
sg19
g20
sg21
g43
sg22
g54
sg23
F98784.0
sg25
g55
sg26
g83
sg27
g44
sg28
g45
sg29
F32460.0
sg30
g56
sg31
g57
sg32
g33
sg34
F434509511.0
sg35
g46
sg36
F0.0
ssS'BELFER ROBERT'
p117
(dp118
g3
g39
sg4
F0.0
sg5
g6
sg7
F3285.0
sg8
I00
sg9
g10
sg11
g40
sg13
g41
sg14
F-102500.0
sg16
F-44093.0
sg18
g42
sg19
g20
sg21
g43
sg22
g54
sg23
F102500.0
sg25
g55
sg26
g83
sg27
g44
sg28
g45
sg29
F44093.0
sg30
g56
sg31
F3285.0
sg32
g33
sg34
F434509511.0000106
sg35
g46
sg36
F1.0600652493556634e-05
ssS'SHANKMAN JEFFREY A'
p119
(dp120
g3
F3221.0
sg4
F0.0047686758230707635
sg5
g6
sg7
F178979.0
sg8
I00
sg9
F554422.0
sg11
S'jeffrey.shankman@enron.com'
p121
sg13
F94.0
sg14
g15
sg16
g17
sg18
F1730.0
sg19
g20
sg21
F2681.0
sg22
F1191.0
sg23
g24
sg25
F2000000.0
sg26
F2072035.0
sg27
F0.030958597538232
sg28
F83.0
sg29
F630137.0
sg30
F304110.0
sg31
F3038702.0
sg32
F1441898.0
sg34
F434509511.0164923
sg35
F0.029183483390251473
sg36
F0.009805852034543542
ssS'WODRASKA JOHN'
p122
(dp123
g3
g39
sg4
F0.0
sg5
g6
sg7
g52
sg8
I00
sg9
g10
sg11
S'john.wodraska@enron.com'
p124
sg13
g41
sg14
g15
sg16
g17
sg18
g42
sg19
g20
sg21
g43
sg22
F189583.0
sg23
g24
sg25
g55
sg26
g83
sg27
g44
sg28
g45
sg29
g79
sg30
g56
sg31
F189583.0
sg32
g33
sg34
F434509511.0006118
sg35
g46
sg36
F0.0006117818878800449
ssS'BERGSIEKER RICHARD P'
p125
(dp126
g3
F383.0
sg4
F0.0015172257069420052
sg5
g6
sg7
F59175.0
sg8
I00
sg9
F180250.0
sg11
S'rick.bergsieker@enron.com'
p127
sg13
F4.0
sg14
F-485813.0
sg16
g17
sg18
F233.0
sg19
g20
sg21
F59.0
sg22
F427316.0
sg23
g24
sg25
F250000.0
sg26
F659249.0
sg27
F0.0
sg28
F0.0
sg29
F659249.0
sg30
F187922.0
sg31
F618850.0
sg32
g33
sg34
F434509511.0041244
sg35
F0.010443864229765013
sg36
F0.0019970209423554102
ssS'URQUHART JOHN A'
p128
(dp129
g3
g39
sg4
F0.0
sg5
g6
sg7
F228656.0
sg8
I00
sg9
g10
sg11
g40
sg13
g41
sg14
F-36666.0
sg16
g17
sg18
g42
sg19
g20
sg21
g43
sg22
g54
sg23
F36666.0
sg25
g55
sg26
g83
sg27
g44
sg28
g45
sg29
g79
sg30
g56
sg31
F228656.0
sg32
g33
sg34
F434509511.00073785
sg35
g46
sg36
F0.0007378699532927507
ssS'BIBI PHILIPPE A'
p130
(dp131
g3
F1607.0
sg4
F0.004243442210865667
sg5
g6
sg7
F38559.0
sg8
I00
sg9
F369721.0
sg11
S'philippe.bibi@enron.com'
p132
sg13
F23.0
sg14
g15
sg16
g17
sg18
F1336.0
sg19
g20
sg21
F40.0
sg22
F425688.0
sg23
g24
sg25
F1000000.0
sg26
F1843816.0
sg27
F0.2
sg28
F8.0
sg29
F378082.0
sg30
F213625.0
sg31
F2047593.0
sg32
F1465734.0
sg34
F434509511.0125575
sg35
F0.01431238332296204
sg36
F0.006607556116054523
ssS'PIRO JIM'
p133
(dp134
g3
F58.0
sg4
F0.00010886758241754575
sg5
g6
sg7
g52
sg8
I00
sg9
g10
sg11
S'jim.piro@enron.com'
p135
sg13
F0.0
sg14
g15
sg16
g17
sg18
F3.0
sg19
g20
sg21
F16.0
sg22
g54
sg23
g24
sg25
g55
sg26
F47304.0
sg27
F0.0625
sg28
F1.0
sg29
F47304.0
sg30
g56
sg31
g57
sg32
g33
sg34
F434509511.00015265
sg35
F0.0
sg36
F0.0
ssS'RIEKER PAULA H'
p136
(dp137
g3
F1328.0
sg4
F0.004416214033114686
sg5
F214678.0
sg7
F33271.0
sg8
I01
sg9
g10
sg11
S'paula.rieker@enron.com'
p138
sg13
F35.0
sg14
F-100000.0
sg16
g17
sg18
F1258.0
sg19
g20
sg21
F82.0
sg22
F1950.0
sg23
g24
sg25
F700000.0
sg26
F1918887.0
sg27
F0.5853658536585366
sg28
F48.0
sg29
F283649.0
sg30
F249201.0
sg31
F1099100.0
sg32
F1635238.0
sg34
F434509511.009739
sg35
F0.02635542168674699
sg36
F0.003546781478133363
ssS'WHALEY DAVID A'
p139
(dp140
g3
g39
sg4
F0.00022719410622981738
sg5
g6
sg7
g52
sg8
I00
sg9
g10
sg11
g40
sg13
g41
sg14
g15
sg16
g17
sg18
g42
sg19
g20
sg21
g43
sg22
g54
sg23
g24
sg25
g55
sg26
F98718.0
sg27
g44
sg28
g45
sg29
g79
sg30
g56
sg31
g57
sg32
F98718.0
sg34
F434509511.0003186
sg35
g46
sg36
F0.0
ssS'BECK SALLY W'
p141
(dp142
g3
F7315.0
sg4
F0.0002900442839788609
sg5
g6
sg7
F37172.0
sg8
I00
sg9
g10
sg11
S'sally.beck@enron.com'
p143
sg13
F144.0
sg14
g15
sg16
g17
sg18
F2639.0
sg19
g20
sg21
F4343.0
sg22
F566.0
sg23
g24
sg25
F700000.0
sg26
F126027.0
sg27
F0.08887865530739121
sg28
F386.0
sg29
F126027.0
sg30
F231330.0
sg31
F969068.0
sg32
g33
sg34
F434509511.00353384
sg35
F0.01968557758031442
sg36
F0.003127169896689784
ssS'HAUG DAVID L'
p144
(dp145
g3
F573.0
sg4
F0.00510299301595725
sg5
g6
sg7
F475.0
sg8
I00
sg9
g10
sg11
S'david.haug@enron.com'
p146
sg13
F4.0
sg14
g15
sg16
g17
sg18
F471.0
sg19
g20
sg21
F19.0
sg22
g54
sg23
g24
sg25
g55
sg26
F2217299.0
sg27
F0.3684210526315789
sg28
F7.0
sg29
F2217299.0
sg30
g56
sg31
F475.0
sg32
g33
sg34
F434509511.0071567
sg35
F0.006980802792321117
sg36
F1.5328188537106245e-06
ssS'ECHOLS JOHN B'
p147
(dp148
g3
g39
sg4
F0.0023220228198871347
sg5
g6
sg7
F21530.0
sg8
I00
sg9
F2234774.0
sg11
S'john.echols@enron.com'
p149
sg13
g41
sg14
g15
sg16
g17
sg18
g42
sg19
g20
sg21
g43
sg22
F53775.0
sg23
g24
sg25
F200000.0
sg26
F1008941.0
sg27
g44
sg28
g45
sg29
F407503.0
sg30
F182245.0
sg31
F2692324.0
sg32
F601438.0
sg34
F434509511.01194394
sg35
g46
sg36
F0.00868809471052127
ssS'MENDELSOHN JOHN'
p150
(dp151
g3
g39
sg4
F0.0
sg5
g6
sg7
F148.0
sg8
I00
sg9
g10
sg11
g40
sg13
g41
sg14
F-103750.0
sg16
g17
sg18
g42
sg19
g20
sg21
g43
sg22
g54
sg23
F103750.0
sg25
g55
sg26
g83
sg27
g44
sg28
g45
sg29
g79
sg30
g56
sg31
F148.0
sg32
g33
sg34
F434509511.0000005
sg35
g46
sg36
F4.775940849456261e-07
ssS'HICKERSON GARY J'
p152
(dp153
g3
F1320.0
sg4
F0.0010151584460944055
sg5
g6
sg7
F98849.0
sg8
I00
sg9
F69223.0
sg11
S'gary.hickerson@enron.com'
p154
sg13
F40.0
sg14
g15
sg16
g17
sg18
F900.0
sg19
g20
sg21
F27.0
sg22
F1936.0
sg23
g24
sg25
F1700000.0
sg26
F441096.0
sg27
F0.037037037037037035
sg28
F1.0
sg29
F441096.0
sg30
F211788.0
sg31
F2081796.0
sg32
g33
sg34
F434509511.00814134
sg35
F0.030303030303030304
sg36
F0.00671792875448287
ssS'CLINE KENNETH W'
p155
(dp156
g3
g39
sg4
F0.0004361653662398198
sg5
g6
sg7
g52
sg8
I00
sg9
g10
sg11
g40
sg13
g41
sg14
g15
sg16
F-472568.0
sg18
g42
sg19
g20
sg21
g43
sg22
g54
sg23
g24
sg25
g55
sg26
F189518.0
sg27
g44
sg28
g45
sg29
F662086.0
sg30
g56
sg31
g57
sg32
g33
sg34
F434509511.00061154
sg35
g46
sg36
F0.0
ssS'LEWIS RICHARD'
p157
(dp158
g3
F952.0
sg4
F0.001957326545148974
sg5
g6
sg7
g52
sg8
I00
sg9
g10
sg11
S'richard.lewis@enron.com'
p159
sg13
F10.0
sg14
g15
sg16
g17
sg18
F739.0
sg19
g20
sg21
F26.0
sg22
g54
sg23
g24
sg25
g55
sg26
F850477.0
sg27
F0.0
sg28
F0.0
sg29
g79
sg30
g56
sg31
g57
sg32
F850477.0
sg34
F434509511.0027445
sg35
F0.01050420168067227
sg36
F0.0
ssS'HAYES ROBERT E'
p160
(dp161
g3
F504.0
sg4
F0.0003484802890770324
sg5
F7961.0
sg7
g52
sg8
I00
sg9
g10
sg11
S'robert.hayes@enron.com'
p162
sg13
F16.0
sg14
g15
sg16
g17
sg18
F50.0
sg19
g20
sg21
F12.0
sg22
g54
sg23
g24
sg25
g55
sg26
F151418.0
sg27
F0.0
sg28
F0.0
sg29
F151418.0
sg30
g56
sg31
F7961.0
sg32
g33
sg34
F434509511.0005143
sg35
F0.031746031746031744
sg36
F2.5690043988190067e-05
ssS'KOPPER MICHAEL J'
p163
(dp164
g3
g39
sg4
F0.002266997557160492
sg5
g6
sg7
F118134.0
sg8
I01
sg9
F602671.0
sg11
S'michael.kopper@enron.com'
p165
sg13
g41
sg14
g15
sg16
g17
sg18
g42
sg19
g20
sg21
g43
sg22
F907502.0
sg23
g24
sg25
F800000.0
sg26
F985032.0
sg27
g44
sg28
g45
sg29
F985032.0
sg30
F224305.0
sg31
F2652612.0
sg32
g33
sg34
F434509511.01173866
sg35
g46
sg36
F0.00855994460037694
ssS'LEFF DANIEL P'
p166
(dp167
g3
F2822.0
sg4
F0.0008297355774106404
sg5
g6
sg7
g52
sg8
I00
sg9
F1387399.0
sg11
S'dan.leff@enron.com'
p168
sg13
F67.0
sg14
g15
sg16
g17
sg18
F2672.0
sg19
g20
sg21
F63.0
sg22
F3083.0
sg23
g24
sg25
F1000000.0
sg26
F360528.0
sg27
F0.2222222222222222
sg28
F14.0
sg29
F360528.0
sg30
F273746.0
sg31
F2664228.0
sg32
g33
sg34
F434509511.00976086
sg35
F0.02374202693125443
sg36
F0.008597429282071052
ssS'LAVORATO JOHN J'
p169
(dp170
g3
F7259.0
sg4
F0.011891900796620307
sg5
g6
sg7
F49537.0
sg8
I00
sg9
F2035380.0
sg11
S'john.lavorato@enron.com'
p171
sg13
F528.0
sg14
g15
sg16
g17
sg18
F3962.0
sg19
g20
sg21
F2585.0
sg22
F1552.0
sg23
g24
sg25
F8000000.0
sg26
F5167144.0
sg27
F0.15899419729206962
sg28
F411.0
sg29
F1008149.0
sg30
F339288.0
sg31
F10425757.0
sg32
F4158995.0
sg34
F434509511.05031806
sg35
F0.07273729163796666
sg36
F0.03364378293432741
ssS'BERBERIAN DAVID'
p172
(dp173
g3
g39
sg4
F0.005738921558382183
sg5
g6
sg7
F11892.0
sg8
I00
sg9
g10
sg11
S'david.berberian@enron.com'
p174
sg13
g41
sg14
g15
sg16
g17
sg18
g42
sg19
g20
sg21
g43
sg22
g54
sg23
g24
sg25
g55
sg26
F2493616.0
sg27
g44
sg28
g45
sg29
F869220.0
sg30
F216582.0
sg31
F228474.0
sg32
F1624396.0
sg34
F434509511.0087842
sg35
g46
sg36
F0.0007372826416477499
ssS'DETMERING TIMOTHY J'
p175
(dp176
g3
g39
sg4
F0.004667020971147396
sg5
F875307.0
sg7
F52255.0
sg8
I00
sg9
F415657.0
sg11
S'timothy.detmering@enron.com'
p177
sg13
g41
sg14
F-775241.0
sg16
F-315068.0
sg18
g42
sg19
g20
sg21
g43
sg22
F1105.0
sg23
g24
sg25
F425000.0
sg26
F2027865.0
sg27
g44
sg28
g45
sg29
F315068.0
sg30
F210500.0
sg31
F1204583.0
sg32
F2027865.0
sg34
F434509511.01043105
sg35
g46
sg36
F0.003887173754230116
ssS'WAKEHAM JOHN'
p178
(dp179
g3
g39
sg4
F0.0
sg5
g6
sg7
F103773.0
sg8
I00
sg9
g10
sg11
g40
sg13
g41
sg14
g15
sg16
g17
sg18
g42
sg19
g20
sg21
g43
sg22
g54
sg23
F109298.0
sg25
g55
sg26
g83
sg27
g44
sg28
g45
sg29
g79
sg30
g56
sg31
F213071.0
sg32
g33
sg34
F434509511.0006876
sg35
g46
sg36
F0.0006875773599557399
ssS'POWERS WILLIAM'
p180
(dp181
g3
F653.0
sg4
F0.0
sg5
g6
sg7
g52
sg8
I00
sg9
g10
sg11
S'ken.powers@enron.com'
p182
sg13
F0.0
sg14
F-17500.0
sg16
g17
sg18
F12.0
sg19
g20
sg21
F26.0
sg22
g54
sg23
F17500.0
sg25
g55
sg26
g83
sg27
F0.0
sg28
F0.0
sg29
g79
sg30
g56
sg31
g57
sg32
g33
sg34
F434509511.0
sg35
F0.0
sg36
F0.0
ssS'GOLD JOSEPH'
p183
(dp184
g3
g39
sg4
F0.0020197739699189233
sg5
g6
sg7
g52
sg8
I00
sg9
F304805.0
sg11
S'joe.gold@enron.com'
p185
sg13
g41
sg14
g15
sg16
g17
sg18
g42
sg19
g20
sg21
g43
sg22
F819288.0
sg23
g24
sg25
F750000.0
sg26
F877611.0
sg27
g44
sg28
g45
sg29
F441096.0
sg30
F272880.0
sg31
F2146973.0
sg32
F436515.0
sg34
F434509511.0097603
sg35
g46
sg36
F0.00692825409012139
ssS'BANNANTINE JAMES M'
p186
(dp187
g3
F566.0
sg4
F0.012067600057665941
sg5
g6
sg7
F56301.0
sg8
I00
sg9
g10
sg11
S'james.bannantine@enron.com'
p188
sg13
F39.0
sg14
F-5104.0
sg16
F-560222.0
sg18
F465.0
sg19
g20
sg21
F29.0
sg22
F864523.0
sg23
g24
sg25
g55
sg26
F5243487.0
sg27
F0.0
sg28
F0.0
sg29
F1757552.0
sg30
F477.0
sg31
F916197.0
sg32
F4046157.0
sg34
F434509511.0198772
sg35
F0.06890459363957598
sg36
F0.00295655586381708
ssS'DUNCAN JOHN H'
p189
(dp190
g3
g39
sg4
F0.0008555623998757532
sg5
g6
sg7
g52
sg8
I00
sg9
g10
sg11
g40
sg13
g41
sg14
F-25000.0
sg16
g17
sg18
g42
sg19
g20
sg21
g43
sg22
g54
sg23
F102492.0
sg25
g55
sg26
F371750.0
sg27
g44
sg28
g45
sg29
g79
sg30
g56
sg31
F77492.0
sg32
F371750.0
sg34
F434509511.0014497
sg35
g46
sg36
F0.0002500656812878815
ssS'SHAPIRO RICHARD S'
p191
(dp192
g3
F15149.0
sg4
F0.0022715291035367
sg5
g6
sg7
F137767.0
sg8
I00
sg9
g10
sg11
S'richard.shapiro@enron.com'
p193
sg13
F74.0
sg14
g15
sg16
g17
sg18
F4527.0
sg19
g20
sg21
F1215.0
sg22
F705.0
sg23
g24
sg25
F650000.0
sg26
F987001.0
sg27
F0.053497942386831275
sg28
F65.0
sg29
F379164.0
sg30
F269076.0
sg31
F1057548.0
sg32
F607837.0
sg34
F434509511.00659776
sg35
F0.0048848108786058485
sg36
F0.003412693711797818
ssS'SHERRIFF JOHN R'
p194
(dp195
g3
F3187.0
sg4
F0.00720118184018301
sg5
g6
sg7
g52
sg8
I00
sg9
F554422.0
sg11
S'john.sherriff@enron.com'
p196
sg13
F28.0
sg14
g15
sg16
g17
sg18
F2103.0
sg19
g20
sg21
F92.0
sg22
F1852186.0
sg23
g24
sg25
F1500000.0
sg26
F3128982.0
sg27
F0.25
sg28
F23.0
sg29
F1293424.0
sg30
F428780.0
sg31
F4335388.0
sg32
F1835558.0
sg34
F434509511.0240874
sg35
F0.008785691873235017
sg36
F0.013990240978001677
ssS'SHELBY REX'
p197
(dp198
g3
F225.0
sg4
F0.005738921558382183
sg5
g6
sg7
F22884.0
sg8
I01
sg9
g10
sg11
S'rex.shelby@enron.com'
p199
sg13
F13.0
sg14
F-4167.0
sg16
g17
sg18
F91.0
sg19
g20
sg21
F39.0
sg22
F1573324.0
sg23
g24
sg25
F200000.0
sg26
F2493616.0
sg27
F0.358974358974359
sg28
F14.0
sg29
F869220.0
sg30
F211844.0
sg31
F2003885.0
sg32
F1624396.0
sg34
F434509511.0145134
sg35
F0.057777777777777775
sg36
F0.006466510965616663
ssS'LEMAISTRE CHARLES'
p200
(dp201
g3
g39
sg4
F0.0009502162542996671
sg5
g6
sg7
g52
sg8
I00
sg9
g10
sg11
g40
sg13
g41
sg14
F-25000.0
sg16
g17
sg18
g42
sg19
g20
sg21
g43
sg22
g54
sg23
F112492.0
sg25
g55
sg26
F412878.0
sg27
g44
sg28
g45
sg29
g79
sg30
g56
sg31
F87492.0
sg32
F412878.0
sg34
F434509511.0016147
sg35
g46
sg36
F0.0002823355518923157
ssS'DEFFNER JOSEPH M'
p202
(dp203
g3
F714.0
sg4
F0.0003664154545974944
sg5
g6
sg7
F41626.0
sg8
I00
sg9
F335349.0
sg11
S'joseph.deffner@enron.com'
p204
sg13
F115.0
sg14
g15
sg16
g17
sg18
F552.0
sg19
g20
sg21
F74.0
sg22
F25553.0
sg23
g24
sg25
F600000.0
sg26
F159211.0
sg27
F0.05405405405405406
sg28
F4.0
sg29
F141833.0
sg30
F206121.0
sg31
F1208649.0
sg32
F17378.0
sg34
F434509511.0044141
sg35
F0.16106442577030813
sg36
F0.003900294683617879
ssS'KISHKILL JOSEPH G'
p205
(dp206
g3
g39
sg4
F0.0023804910452236336
sg5
g6
sg7
F116335.0
sg8
I00
sg9
g10
sg11
S'joe.kishkill@enron.com'
p207
sg13
g41
sg14
F-51042.0
sg16
g17
sg18
g42
sg19
g20
sg21
g43
sg22
F465357.0
sg23
g24
sg25
g55
sg26
F1034346.0
sg27
g44
sg28
g45
sg29
F1034346.0
sg30
F174246.0
sg31
F704896.0
sg32
g33
sg34
F434509511.0056125
sg35
g46
sg36
F0.002274690270958325
ssS'WHALLEY LAWRENCE G'
p208
(dp209
g3
F6019.0
sg4
F0.013990803068980463
sg5
g6
sg7
F57838.0
sg8
I00
sg9
F808346.0
sg11
S'greg.whalley@enron.com'
p210
sg13
F186.0
sg14
g15
sg16
g17
sg18
F3920.0
sg19
g20
sg21
F556.0
sg22
F301026.0
sg23
g24
sg25
F3000000.0
sg26
F6079137.0
sg27
F0.04316546762589928
sg28
F24.0
sg29
F2796177.0
sg30
F510364.0
sg31
F4677574.0
sg32
F3282960.0
sg34
F434509511.0347118
sg35
F0.03090214321315833
sg36
F0.015094470772266569
ssS'MCCARTY DANNY J'
p211
(dp212
g3
F1433.0
sg4
F0.0017466384067252327
sg5
g6
sg7
g52
sg8
I00
sg9
g10
sg11
S'danny.mccarty@enron.com'
p213
sg13
F25.0
sg14
g15
sg16
g17
sg18
F508.0
sg19
g20
sg21
F215.0
sg22
g54
sg23
g24
sg25
g55
sg26
F758931.0
sg27
F0.009302325581395349
sg28
F2.0
sg29
F94556.0
sg30
g56
sg31
g57
sg32
F664375.0
sg34
F434509511.00244904
sg35
F0.017445917655268667
sg36
F0.0
ssS'MCCONNELL MICHAEL S'
p214
(dp215
g3
F3329.0
sg4
F0.007137424892869606
sg5
g6
sg7
F81364.0
sg8
I00
sg9
F554422.0
sg11
S'mike.mcconnell@enron.com'
p216
sg13
F92.0
sg14
g15
sg16
g17
sg18
F2189.0
sg19
g20
sg21
F2742.0
sg22
F540.0
sg23
g24
sg25
F1100000.0
sg26
F3101279.0
sg27
F0.07075127644055434
sg28
F194.0
sg29
F1478269.0
sg30
F365038.0
sg31
F2101364.0
sg32
F1623010.0
sg34
F434509511.01678884
sg35
F0.02763592670471613
sg36
F0.0067810744372816265
ssS'DELAINEY DAVID W'
p217
(dp218
g3
F3093.0
sg4
F0.008318025056993517
sg5
g6
sg7
F86174.0
sg8
I01
sg9
F1294981.0
sg11
S'david.delainey@enron.com'
p219
sg13
F66.0
sg14
g15
sg16
g17
sg18
F2097.0
sg19
g20
sg21
F3069.0
sg22
F1661.0
sg23
g24
sg25
F3000000.0
sg26
F3614261.0
sg27
F0.198435972629521
sg28
F609.0
sg29
F1323148.0
sg30
F365163.0
sg31
F4747979.0
sg32
F2291113.0
sg34
F434509511.0269848
sg35
F0.02133850630455868
sg36
F0.01532166679625709
ssS'SULLIVAN-SHAKLOVITZ COLLEEN'
p220
(dp221
g3
g39
sg4
F0.003135431942248095
sg5
F181993.0
sg7
g52
sg8
I00
sg9
F554422.0
sg11
g40
sg13
g41
sg14
g15
sg16
g17
sg18
g42
sg19
g20
sg21
g43
sg22
F162.0
sg23
g24
sg25
F100000.0
sg26
F1362375.0
sg27
g44
sg28
g45
sg29
g79
sg30
F162779.0
sg31
F999356.0
sg32
F1362375.0
sg34
F434509511.0076213
sg35
g46
sg36
F0.0032249088807764946
ssS'WROBEL BRUCE'
p222
(dp223
g3
g39
sg4
F0.00032020012560783737
sg5
g6
sg7
g52
sg8
I00
sg9
g10
sg11
g40
sg13
g41
sg14
g15
sg16
g17
sg18
g42
sg19
g20
sg21
g43
sg22
g54
sg23
g24
sg25
g55
sg26
F139130.0
sg27
g44
sg28
g45
sg29
g79
sg30
g56
sg31
g57
sg32
F139130.0
sg34
F434509511.00044894
sg35
g46
sg36
F0.0
ssS'LINDHOLM TOD A'
p224
(dp225
g3
g39
sg4
F0.007052108003223893
sg5
F204075.0
sg7
F57727.0
sg8
I00
sg9
F175000.0
sg11
S'tod.lindholm@enron.com'
p226
sg13
g41
sg14
g15
sg16
g17
sg18
g42
sg19
g20
sg21
g43
sg22
F2630.0
sg23
g24
sg25
F200000.0
sg26
F3064208.0
sg27
g44
sg28
g45
sg29
F514847.0
sg30
F236457.0
sg31
F875889.0
sg32
F2549361.0
sg34
F434509511.0127146
sg35
g46
sg36
F0.002826482469384727
ssS'MEYER JEROME J'
p227
(dp228
g3
g39
sg4
F0.0
sg5
g6
sg7
F2151.0
sg8
I00
sg9
g10
sg11
g40
sg13
g41
sg14
F-38346.0
sg16
g17
sg18
g42
sg19
g20
sg21
g43
sg22
g54
sg23
F38346.0
sg25
g55
sg26
g83
sg27
g44
sg28
g45
sg29
g79
sg30
g56
sg31
F2151.0
sg32
g33
sg34
F434509511.0000069
sg35
g46
sg36
F6.941249167013796e-06
ssS'LAY KENNETH L'
p229
(dp230
g3
F4273.0
sg4
F0.11302417267455395
sg5
F202911.0
sg7
F99832.0
sg8
I01
sg9
F3600000.0
sg11
S'kenneth.lay@enron.com'
p231
sg13
F123.0
sg14
F-300000.0
sg16
g17
sg18
F2411.0
sg19
F81525000.0
sg21
F36.0
sg22
F10359729.0
sg23
g24
sg25
F7000000.0
sg26
F49110078.0
sg27
F0.4444444444444444
sg28
F16.0
sg29
F14761694.0
sg30
F1072321.0
sg31
F103559793.0
sg32
F34348384.0
sg34
F434509511.4926637
sg35
F0.028785396676807865
sg36
F0.3341861119931991
ssS'BUTTS ROBERT H'
p232
(dp233
g3
g39
sg4
F0.0009611274078647268
sg5
g6
sg7
F9410.0
sg8
I00
sg9
F175000.0
sg11
S'bob.butts@enron.com'
p234
sg13
g41
sg14
F-75000.0
sg16
g17
sg18
g42
sg19
g20
sg21
g43
sg22
F150656.0
sg23
g24
sg25
F750000.0
sg26
F417619.0
sg27
g44
sg28
g45
sg29
F417619.0
sg30
F261516.0
sg31
F1271582.0
sg32
g33
sg34
F434509511.005451
sg35
g46
sg36
F0.0041033786602927644
ssS'OLSON CINDY K'
p235
(dp236
g3
F1184.0
sg4
F0.005999323223099712
sg5
F77716.0
sg7
F63791.0
sg8
I00
sg9
F100000.0
sg11
S'cindy.olson@enron.com'
p237
sg13
F20.0
sg14
g15
sg16
g17
sg18
F856.0
sg19
g20
sg21
F52.0
sg22
F972.0
sg23
g24
sg25
F750000.0
sg26
F2606763.0
sg27
F0.28846153846153844
sg28
F15.0
sg29
F969729.0
sg30
F329078.0
sg31
F1321557.0
sg32
F1637034.0
sg34
F434509511.01267666
sg35
F0.016891891891891893
sg36
F0.0042646473386384245
ssS'MCDONALD REBECCA'
p238
(dp239
g3
F894.0
sg4
F0.0038925868299347767
sg5
g6
sg7
g52
sg8
I00
sg9
g10
sg11
S'rebecca.mcdonald@enron.com'
p240
sg13
F54.0
sg14
g15
sg16
g17
sg18
F720.0
sg19
g20
sg21
F13.0
sg22
g54
sg23
g24
sg25
g55
sg26
F1691366.0
sg27
F0.07692307692307693
sg28
F1.0
sg29
F934065.0
sg30
g56
sg31
g57
sg32
F757301.0
sg34
F434509511.005458
sg35
F0.06040268456375839
sg36
F0.0
ssS'CUMBERLAND MICHAEL S'
p241
(dp242
g3
g39
sg4
F0.0004785625969876641
sg5
g6
sg7
F22344.0
sg8
I00
sg9
F275000.0
sg11
g40
sg13
g41
sg14
g15
sg16
g17
sg18
g42
sg19
g20
sg21
g43
sg22
F713.0
sg23
g24
sg25
F325000.0
sg26
F207940.0
sg27
g44
sg28
g45
sg29
F207940.0
sg30
F184899.0
sg31
F807956.0
sg32
g33
sg34
F434509511.00327826
sg35
g46
sg36
F0.002607263557407624
ssS'GAHN ROBERT S'
p243
(dp244
g3
g39
sg4
F0.0007332566766300312
sg5
F73122.0
sg7
F50080.0
sg8
I00
sg9
g10
sg11
g40
sg13
g41
sg14
F-1042.0
sg16
g17
sg18
g42
sg19
g20
sg21
g43
sg22
F76547.0
sg23
g24
sg25
F509870.0
sg26
F318607.0
sg27
g44
sg28
g45
sg29
F235370.0
sg30
F192008.0
sg31
F900585.0
sg32
F83237.0
sg34
F434509511.0039343
sg35
g46
sg36
F0.0029061761418294374
ssS'MCCLELLAN GEORGE'
p245
(dp246
g3
F1744.0
sg4
F0.002181450522955296
sg5
g6
sg7
F228763.0
sg8
I00
sg9
g10
sg11
S'george.mcclellan@enron.com'
p247
sg13
F52.0
sg14
F-125000.0
sg16
g17
sg18
F1469.0
sg19
g20
sg21
F49.0
sg22
F51587.0
sg23
g24
sg25
F900000.0
sg26
F947861.0
sg27
F0.0
sg28
F0.0
sg29
F441096.0
sg30
F263413.0
sg31
F1318763.0
sg32
F506765.0
sg34
F434509511.0073144
sg35
F0.02981651376146789
sg36
F0.004255631136791546
ssS'HERMANN ROBERT J'
p248
(dp249
g3
g39
sg4
F0.0015376694481608253
sg5
g6
sg7
F48357.0
sg8
I00
sg9
F150000.0
sg11
S'robert.hermann@enron.com'
p250
sg13
g41
sg14
F-280000.0
sg16
g17
sg18
g42
sg19
g20
sg21
g43
sg22
F416441.0
sg23
g24
sg25
F700000.0
sg26
F668132.0
sg27
g44
sg28
g45
sg29
F480632.0
sg30
F262663.0
sg31
F1297461.0
sg32
F187500.0
sg34
F434509511.00634295
sg35
g46
sg36
F0.00418688985842998
ssS'SCRIMSHAW MATTHEW'
p251
(dp252
g3
g39
sg4
F0.0017480791116675925
sg5
g6
sg7
g52
sg8
I00
sg9
g10
sg11
S'matthew.scrimshaw@enron.com'
p253
sg13
g41
sg14
g15
sg16
g17
sg18
g42
sg19
g20
sg21
g43
sg22
g54
sg23
g24
sg25
g55
sg26
F759557.0
sg27
g44
sg28
g45
sg29
g79
sg30
g56
sg31
g57
sg32
F759557.0
sg34
F434509511.00245106
sg35
g46
sg36
F0.0
ssS'GATHMANN WILLIAM D'
p254
(dp255
g3
g39
sg4
F0.0044771402023464565
sg5
g6
sg7
g52
sg8
I00
sg9
g10
sg11
g40
sg13
g41
sg14
g15
sg16
F-72419.0
sg18
g42
sg19
g20
sg21
g43
sg22
g54
sg23
g24
sg25
g55
sg26
F1945360.0
sg27
g44
sg28
g45
sg29
F264013.0
sg30
g56
sg31
g57
sg32
F1753766.0
sg34
F434509511.0062777
sg35
g46
sg36
F0.0
ssS'HAEDICKE MARK E'
p256
(dp257
g3
F4009.0
sg4
F0.001848277148529437
sg5
F2157527.0
sg7
F76169.0
sg8
I00
sg9
F983346.0
sg11
S'mark.haedicke@enron.com'
p258
sg13
F180.0
sg14
F-934484.0
sg16
F-329825.0
sg18
F1847.0
sg19
g20
sg21
F1941.0
sg22
F52382.0
sg23
g24
sg25
F1150000.0
sg26
F803094.0
sg27
F0.03142709943328181
sg28
F61.0
sg29
F524169.0
sg30
F374125.0
sg31
F3859065.0
sg32
F608750.0
sg34
F434509511.01504475
sg35
F0.04489897730107259
sg36
F0.012453152820410086
ssS'BOWEN JR RAYMOND M'
p259
(dp260
g3
F1858.0
sg4
F0.0005800908694033167
sg5
g6
sg7
F65907.0
sg8
I01
sg9
F974293.0
sg11
S'raymond.bowen@enron.com'
p261
sg13
F140.0
sg14
F-833.0
sg16
g17
sg18
F1593.0
sg19
g20
sg21
F27.0
sg22
F1621.0
sg23
g24
sg25
F1350000.0
sg26
F252055.0
sg27
F0.5555555555555556
sg28
F15.0
sg29
F252055.0
sg30
F278601.0
sg31
F2669589.0
sg32
g33
sg34
F434509511.0094281
sg35
F0.07534983853606028
sg36
F0.00861472915970209
ssS'GILLIS JOHN'
p262
(dp263
g3
g39
sg4
F0.00019709810218630633
sg5
g6
sg7
g52
sg8
I00
sg9
g10
sg11
g40
sg13
g41
sg14
g15
sg16
g17
sg18
g42
sg19
g20
sg21
g43
sg22
g54
sg23
g24
sg25
g55
sg26
F85641.0
sg27
g44
sg28
g45
sg29
F75838.0
sg30
g56
sg31
g57
sg32
F9803.0
sg34
F434509511.0002764
sg35
g46
sg36
F0.0
ssS'FITZGERALD JAY L'
p264
(dp265
g3
F936.0
sg4
F0.0037311864503697828
sg5
g6
sg7
F23870.0
sg8
I00
sg9
F556416.0
sg11
S'jay.fitzgerald@enron.com'
p266
sg13
F1.0
sg14
g15
sg16
g17
sg18
F723.0
sg19
g20
sg21
F16.0
sg22
F285414.0
sg23
g24
sg25
F350000.0
sg26
F1621236.0
sg27
F0.5
sg28
F8.0
sg29
F956775.0
sg30
F199157.0
sg31
F1414857.0
sg32
F664461.0
sg34
F434509511.00979745
sg35
F0.0010683760683760685
sg36
F0.004565725231377796
ssS'MORAN MICHAEL P'
p267
(dp268
g3
F672.0
sg4
F0.0005089439802849333
sg5
g6
sg7
g52
sg8
I00
sg9
g10
sg11
S'michael.moran@enron.com'
p269
sg13
F0.0
sg14
g15
sg16
g17
sg18
F127.0
sg19
g20
sg21
F19.0
sg22
g54
sg23
g24
sg25
g55
sg26
F221141.0
sg27
F0.0
sg28
F0.0
sg29
F161602.0
sg30
g56
sg31
g57
sg32
F59539.0
sg34
F434509511.00071365
sg35
F0.0
sg36
F0.0
ssS'REDMOND BRIAN L'
p270
(dp271
g3
F1671.0
sg4
F0.018159151411532622
sg5
g6
sg7
F14689.0
sg8
I00
sg9
g10
sg11
S'brian.redmond@enron.com'
p272
sg13
F204.0
sg14
g15
sg16
g17
sg18
F1063.0
sg19
g20
sg21
F221.0
sg22
g54
sg23
g24
sg25
g55
sg26
F7890324.0
sg27
F0.22171945701357465
sg28
F49.0
sg29
F381285.0
sg30
F96840.0
sg31
F111529.0
sg32
F7509039.0
sg34
F434509511.02582186
sg35
F0.12208258527827648
sg36
F0.0003599026398641942
ssS'BAZELIDES PHILIP J'
p273
(dp274
g3
g39
sg4
F0.0036814867327495623
sg5
F684694.0
sg7
g52
sg8
I00
sg9
F93750.0
sg11
g40
sg13
g41
sg14
g15
sg16
g17
sg18
g42
sg19
g20
sg21
g43
sg22
F874.0
sg23
g24
sg25
g55
sg26
F1599641.0
sg27
g44
sg28
g45
sg29
g79
sg30
F80818.0
sg31
F860136.0
sg32
F1599641.0
sg34
F434509511.00793767
sg35
g46
sg36
F0.0027756477422215616
ssS'BELDEN TIMOTHY N'
p275
(dp276
g3
F7991.0
sg4
F0.0025562271293987854
sg5
F2144013.0
sg7
F17355.0
sg8
I01
sg9
g10
sg11
S'tim.belden@enron.com'
p277
sg13
F228.0
sg14
F-2334434.0
sg16
g17
sg18
F5521.0
sg19
g20
sg21
F484.0
sg22
F210698.0
sg23
g24
sg25
F5249999.0
sg26
F1110705.0
sg27
F0.2231404958677686
sg28
F108.0
sg29
F157569.0
sg30
F213999.0
sg31
F5501630.0
sg32
F953136.0
sg34
F434509511.0213379
sg35
F0.028532098610937303
sg36
F0.017753688821347334
ssS'DURAN WILLIAM D'
p278
(dp279
g3
F904.0
sg4
F0.0037764650910023464
sg5
g6
sg7
F25785.0
sg8
I00
sg9
F1105218.0
sg11
S'w.duran@enron.com'
p280
sg13
F106.0
sg14
g15
sg16
g17
sg18
F599.0
sg19
g20
sg21
F12.0
sg22
F1568.0
sg23
g24
sg25
F750000.0
sg26
F1640910.0
sg27
F0.25
sg28
F3.0
sg29
F189041.0
sg30
F210692.0
sg31
F2093263.0
sg32
F1451869.0
sg34
F434509511.01205015
sg35
F0.1172566371681416
sg36
F0.006754932615104975
ssS'THORN TERENCE H'
p281
(dp282
g3
F266.0
sg4
F0.011087895380959797
sg5
F16586.0
sg7
F46145.0
sg8
I00
sg9
F200000.0
sg11
S'terence.thorn@enron.com'
p283
sg13
F0.0
sg14
g15
sg16
g17
sg18
F73.0
sg19
g20
sg21
F41.0
sg22
F426629.0
sg23
g24
sg25
g55
sg26
F4817796.0
sg27
F0.0
sg28
F0.0
sg29
F365320.0
sg30
F222093.0
sg31
F911453.0
sg32
F4452476.0
sg34
F434509511.0184882
sg35
F0.0
sg36
F0.0029412470372023364
ssS'FASTOW ANDREW S'
p284
(dp285
g3
g39
sg4
F0.004129741592698992
sg5
g6
sg7
F55921.0
sg8
I01
sg9
F1736055.0
sg11
S'andrew.fastow@enron.com'
p286
sg13
g41
sg14
F-1386055.0
sg16
g17
sg18
g42
sg19
g20
sg21
g43
sg22
F277464.0
sg23
g24
sg25
F1300000.0
sg26
F1794412.0
sg27
g44
sg28
g45
sg29
F1794412.0
sg30
F440698.0
sg31
F2424083.0
sg32
g33
sg34
F434509511.01361305
sg35
g46
sg36
F0.007822484474440866
ssS'FOY JOE'
p287
(dp288
g3
F57.0
sg4
F0.0007903946664127221
sg5
F181755.0
sg7
g52
sg8
I00
sg9
g10
sg11
S'tracy.foy@enron.com'
p289
sg13
F0.0
sg14
g15
sg16
g17
sg18
F2.0
sg19
g20
sg21
F13.0
sg22
g54
sg23
g24
sg25
g55
sg26
F343434.0
sg27
F0.0
sg28
F0.0
sg29
g79
sg30
g56
sg31
F181755.0
sg32
F343434.0
sg34
F434509511.0016948
sg35
F0.0
sg36
F0.0005865210331708938
ssS'CALGER CHRISTOPHER F'
p290
(dp291
g3
F2598.0
sg4
F0.0002900442839788609
sg5
g6
sg7
F35818.0
sg8
I01
sg9
F375304.0
sg11
S'christopher.calger@enron.com'
p292
sg13
F199.0
sg14
F-262500.0
sg16
g17
sg18
F2188.0
sg19
g20
sg21
F144.0
sg22
F486.0
sg23
g24
sg25
F1250000.0
sg26
F126027.0
sg27
F0.1736111111111111
sg28
F25.0
sg29
F126027.0
sg30
F240189.0
sg31
F1639297.0
sg32
g33
sg34
F434509511.00569665
sg35
F0.07659738260200154
sg36
F0.005289990207223717
ssS'RICE KENNETH D'
p293
(dp294
g3
F905.0
sg4
F0.051880427077694045
sg5
g6
sg7
F46950.0
sg8
I01
sg9
F1617011.0
sg11
S'ken.rice@enron.com'
p295
sg13
F42.0
sg14
F-3504386.0
sg16
g17
sg18
F864.0
sg19
g20
sg21
F18.0
sg22
F174839.0
sg23
g24
sg25
F1750000.0
sg26
F22542539.0
sg27
F0.2222222222222222
sg28
F4.0
sg29
F2748364.0
sg30
F420636.0
sg31
F505050.0
sg32
F19794175.0
sg34
F434509511.07437426
sg35
F0.04640883977900553
sg36
F0.0016297898148769493
ssS'KAMINSKI WINCENTY J'
p296
(dp297
g3
F4607.0
sg4
F0.002246296054035052
sg5
g6
sg7
F83585.0
sg8
I00
sg9
F323466.0
sg11
S'vince.kaminski@enron.com'
p298
sg13
F41.0
sg14
g15
sg16
g17
sg18
F583.0
sg19
g20
sg21
F14368.0
sg22
F4669.0
sg23
g24
sg25
F400000.0
sg26
F976037.0
sg27
F0.011901447661469933
sg28
F171.0
sg29
F126027.0
sg30
F275101.0
sg31
F1086821.0
sg32
F850010.0
sg34
F434509511.0066568
sg35
F0.008899500759713479
sg36
F0.003507157304018178
ssS'COX DAVID'
p299
(dp300
g3
F102.0
sg4
F0.0011406723844993119
sg5
g6
sg7
F27861.0
sg8
I00
sg9
g10
sg11
S'chip.cox@enron.com'
p301
sg13
F0.0
sg14
F-41250.0
sg16
g17
sg18
F71.0
sg19
g20
sg21
F33.0
sg22
F494.0
sg23
g24
sg25
F800000.0
sg26
F495633.0
sg27
F0.12121212121212122
sg28
F4.0
sg29
F378082.0
sg30
F314288.0
sg31
F1101393.0
sg32
F117551.0
sg34
F434509511.0051536
sg35
F0.0
sg36
F0.0035541809594629597
ssS'OVERDYKE JR JERE C'
p302
(dp303
g3
g39
sg4
F0.01681803002006094
sg5
g6
sg7
F18834.0
sg8
I00
sg9
F135836.0
sg11
S'jere.overdyke@enron.com'
p304
sg13
g41
sg14
g15
sg16
g17
sg18
g42
sg19
g20
sg21
g43
sg22
F176.0
sg23
g24
sg25
g55
sg26
F7307594.0
sg27
g44
sg28
g45
sg29
F2041016.0
sg30
F94941.0
sg31
F249787.0
sg32
F5266578.0
sg34
F434509511.0243876
sg35
g46
sg36
F0.0008060594168669805
ssS'PEREIRA PAULO V. FERRAZ'
p305
(dp306
g3
g39
sg4
F0.0
sg5
g6
sg7
F27942.0
sg8
I00
sg9
g10
sg11
g40
sg13
g41
sg14
F-101250.0
sg16
g17
sg18
g42
sg19
g20
sg21
g43
sg22
g54
sg23
F101250.0
sg25
g55
sg26
g83
sg27
g44
sg28
g45
sg29
g79
sg30
g56
sg31
F27942.0
sg32
g33
sg34
F434509511.0000902
sg35
g46
sg36
F9.016847244291004e-05
ssS'STABLER FRANK'
p307
(dp308
g3
g39
sg4
F0.0011777279600215702
sg5
g6
sg7
F16514.0
sg8
I00
sg9
g10
sg11
S'frank.stabler@enron.com'
p309
sg13
g41
sg14
g15
sg16
g17
sg18
g42
sg19
g20
sg21
g43
sg22
F356071.0
sg23
g24
sg25
F500000.0
sg26
F511734.0
sg27
g44
sg28
g45
sg29
F511734.0
sg30
F239502.0
sg31
F1112087.0
sg32
g33
sg34
F434509511.00524
sg35
g46
sg36
F0.0035886903590873417
ssS'SKILLING JEFFREY K'
p310
(dp311
g3
F3627.0
sg4
F0.060053166477177525
sg5
g6
sg7
F29336.0
sg8
I01
sg9
F1920000.0
sg11
S'jeff.skilling@enron.com'
p312
sg13
F88.0
sg14
g15
sg16
g17
sg18
F2042.0
sg19
g20
sg21
F108.0
sg22
F22122.0
sg23
g24
sg25
F5600000.0
sg26
F26093672.0
sg27
F0.2777777777777778
sg28
F30.0
sg29
F6843672.0
sg30
F1111258.0
sg31
F8682716.0
sg32
F19250000.0
sg34
F434509511.11222297
sg35
F0.0242624758753791
sg36
F0.02801901218150505
ssS'BLAKE JR. NORMAN P'
p313
(dp314
g3
g39
sg4
F0.0
sg5
g6
sg7
F1279.0
sg8
I00
sg9
g10
sg11
g40
sg13
g41
sg14
F-113784.0
sg16
g17
sg18
g42
sg19
g20
sg21
g43
sg22
g54
sg23
F113784.0
sg25
g55
sg26
g83
sg27
g44
sg28
g45
sg29
g79
sg30
g56
sg31
F1279.0
sg32
g33
sg34
F434509511.0000041
sg35
g46
sg36
F4.127316450307134e-06
ssS'SHERRICK JEFFREY B'
p315
(dp316
g3
F613.0
sg4
F0.0042173254062556065
sg5
g6
sg7
g52
sg8
I00
sg9
g10
sg11
S'jeffrey.sherrick@enron.com'
p317
sg13
F39.0
sg14
g15
sg16
g17
sg18
F583.0
sg19
g20
sg21
F25.0
sg22
g54
sg23
g24
sg25
g55
sg26
F1832468.0
sg27
F0.72
sg28
F18.0
sg29
F405999.0
sg30
g56
sg31
g57
sg32
F1426469.0
sg34
F434509511.0059134
sg35
F0.0636215334420881
sg36
F0.0
ssS'PRENTICE JAMES'
p318
(dp319
g3
g39
sg4
F0.0025201749841558705
sg5
F564348.0
sg7
g52
sg8
I00
sg9
g10
sg11
S'james.prentice@enron.com'
p320
sg13
g41
sg14
g15
sg16
g17
sg18
g42
sg19
g20
sg21
g43
sg22
g54
sg23
g24
sg25
g55
sg26
F1095040.0
sg27
g44
sg28
g45
sg29
F208809.0
sg30
g56
sg31
F564348.0
sg32
F886231.0
sg34
F434509511.0053548
sg35
g46
sg36
F0.0018211436935871232
ssS'GRAY RODNEY'
p321
(dp322
g3
g39
sg4
F0.0
sg5
F93585.0
sg7
g52
sg8
I00
sg9
F365625.0
sg11
g40
sg13
g41
sg14
g15
sg16
g17
sg18
g42
sg19
g20
sg21
g43
sg22
F680833.0
sg23
g24
sg25
g55
sg26
g83
sg27
g44
sg28
g45
sg29
g79
sg30
F6615.0
sg31
F1146658.0
sg32
g33
sg34
F434509511.00370026
sg35
g46
sg36
F0.0037002505287539312
ssS'PICKERING MARK R'
p323
(dp324
g3
F898.0
sg4
F6.627703023973623e-05
sg5
g6
sg7
F31653.0
sg8
I00
sg9
g10
sg11
S'mark.pickering@enron.com'
p325
sg13
F7.0
sg14
g15
sg16
g17
sg18
F728.0
sg19
F400000.0
sg21
F67.0
sg22
g54
sg23
g24
sg25
F300000.0
sg26
F28798.0
sg27
F0.0
sg28
F0.0
sg29
g79
sg30
F655037.0
sg31
F1386690.0
sg32
F28798.0
sg34
F434509511.00456774
sg35
F0.0077951002227171495
sg36
F0.004474830686846286
ssS'THE TRAVEL AGENCY IN THE PARK'
p326
(dp327
g3
g39
sg4
F0.0
sg5
g6
sg7
g52
sg8
I00
sg9
g10
sg11
g40
sg13
g41
sg14
g15
sg16
g17
sg18
g42
sg19
g20
sg21
g43
sg22
F362096.0
sg23
g24
sg25
g55
sg26
g83
sg27
g44
sg28
g45
sg29
g79
sg30
g56
sg31
F362096.0
sg32
g33
sg34
F434509511.0011685
sg35
g46
sg36
F0.0011684791066383206
ssS'NOLES JAMES L'
p328
(dp329
g3
g39
sg4
F0.0008485544980395147
sg5
F774401.0
sg7
g52
sg8
I00
sg9
g10
sg11
g40
sg13
g41
sg14
g15
sg16
F-94556.0
sg18
g42
sg19
g20
sg21
g43
sg22
g54
sg23
g24
sg25
g55
sg26
F368705.0
sg27
g44
sg28
g45
sg29
F463261.0
sg30
g56
sg31
F774401.0
sg32
g33
sg34
F434509511.0036888
sg35
g46
sg36
F0.002498982006594445
ssS'KEAN STEVEN J'
p330
(dp331
g3
F12754.0
sg4
F0.014162272273022811
sg5
g6
sg7
F41953.0
sg8
I00
sg9
F300000.0
sg11
S'steven.kean@enron.com'
p332
sg13
F140.0
sg14
g15
sg16
g17
sg18
F3639.0
sg19
g20
sg21
F6759.0
sg22
F1231.0
sg23
g24
sg25
F1000000.0
sg26
F6153642.0
sg27
F0.05725699067909454
sg28
F387.0
sg29
F4131594.0
sg30
F404338.0
sg31
F1747522.0
sg32
F2022048.0
sg34
F434509511.02549696
sg35
F0.010976948408342482
sg36
F0.005639230881840206
ssS'FOWLER PEGGY'
p333
(dp334
g3
F517.0
sg4
F0.004337644981952995
sg5
g6
sg7
g52
sg8
I00
sg9
g10
sg11
S'kulvinder.fowler@enron.com'
p335
sg13
F0.0
sg14
g15
sg16
g17
sg18
F10.0
sg19
g20
sg21
F36.0
sg22
g54
sg23
g24
sg25
g55
sg26
F1884748.0
sg27
F0.0
sg28
F0.0
sg29
F560170.0
sg30
g56
sg31
g57
sg32
F1324578.0
sg34
F434509511.00608206
sg35
F0.0
sg36
F0.0
ssS'WASAFF GEORGE'
p336
(dp337
g3
F400.0
sg4
F0.004732754860226753
sg5
F831299.0
sg7
g52
sg8
I00
sg9
F200000.0
sg11
S'george.wasaff@enron.com'
p338
sg13
F22.0
sg14
F-583325.0
sg16
g17
sg18
F337.0
sg19
g20
sg21
F30.0
sg22
F1425.0
sg23
g24
sg25
F325000.0
sg26
F2056427.0
sg27
F0.23333333333333334
sg28
F7.0
sg29
F388167.0
sg30
F259996.0
sg31
F1034395.0
sg32
F1668260.0
sg34
F434509511.00997406
sg35
F0.055
sg36
F0.0033379792803873713
ssS'WHITE JR THOMAS E'
p339
(dp340
g3
g39
sg4
F0.034853375165820016
sg5
g6
sg7
F81353.0
sg8
I00
sg9
g10
sg11
S'thomas.white@enron.com'
p341
sg13
g41
sg14
g15
sg16
g17
sg18
g42
sg19
g20
sg21
g43
sg22
F1085463.0
sg23
g24
sg25
F450000.0
sg26
F15144123.0
sg27
g44
sg28
g45
sg29
F13847074.0
sg30
F317543.0
sg31
F1934359.0
sg32
F1297049.0
sg34
F434509511.05511206
sg35
g46
sg36
F0.006242151463252274
ssS'CHRISTODOULOU DIOMEDES'
p342
(dp343
g3
g39
sg4
F0.013987921659095744
sg5
g6
sg7
g52
sg8
I00
sg9
g10
sg11
S'diomedes.christodoulou@enron.com'
p344
sg13
g41
sg14
g15
sg16
g17
sg18
g42
sg19
g20
sg21
g43
sg22
g54
sg23
g24
sg25
g55
sg26
F6077885.0
sg27
g44
sg28
g45
sg29
F950730.0
sg30
g56
sg31
g57
sg32
F5127155.0
sg34
F434509511.01961327
sg35
g46
sg36
F0.0
ssS'ALLEN PHILLIP K'
p345
(dp346
g3
F2902.0
sg4
F0.0039804445155171755
sg5
F2869717.0
sg7
F13868.0
sg8
I00
sg9
F304805.0
sg11
S'phillip.allen@enron.com'
p347
sg13
F47.0
sg14
F-3081055.0
sg16
F-126027.0
sg18
F1407.0
sg19
g20
sg21
F2195.0
sg22
F152.0
sg23
g24
sg25
F4175000.0
sg26
F1729541.0
sg27
F0.029612756264236904
sg28
F65.0
sg29
F126027.0
sg30
F201955.0
sg31
F4484442.0
sg32
F1729541.0
sg34
F434509511.02005243
sg35
F0.016195727084769126
sg36
F0.014471236307309012
ssS'SHARP VICTORIA T'
p348
(dp349
g3
F3136.0
sg4
F0.0011372271204438606
sg5
F187469.0
sg7
F116337.0
sg8
I00
sg9
F422158.0
sg11
S'vicki.sharp@enron.com'
p350
sg13
F24.0
sg14
g15
sg16
g17
sg18
F2477.0
sg19
g20
sg21
F136.0
sg22
F2401.0
sg23
g24
sg25
F600000.0
sg26
F494136.0
sg27
F0.04411764705882353
sg28
F6.0
sg29
F213063.0
sg30
F248146.0
sg31
F1576511.0
sg32
F281073.0
sg34
F434509511.006682
sg35
F0.007653061224489796
sg36
F0.005087380597646717
ssS'JAEDICKE ROBERT'
p351
(dp352
g3
g39
sg4
F0.0009936491355651822
sg5
g6
sg7
g52
sg8
I00
sg9
g10
sg11
g40
sg13
g41
sg14
F-25000.0
sg16
F-44093.0
sg18
g42
sg19
g20
sg21
g43
sg22
g54
sg23
F108750.0
sg25
g55
sg26
F431750.0
sg27
g44
sg28
g45
sg29
F44093.0
sg30
g56
sg31
F83750.0
sg32
F431750.0
sg34
F434509511.0016635
sg35
g46
sg36
F0.0002702601663121364
ssS'WINOKUR JR. HERBERT S'
p353
(dp354
g3
g39
sg4
F0.0
sg5
g6
sg7
F1413.0
sg8
I00
sg9
g10
sg11
g40
sg13
g41
sg14
F-25000.0
sg16
g17
sg18
g42
sg19
g20
sg21
g43
sg22
g54
sg23
F108579.0
sg25
g55
sg26
g83
sg27
g44
sg28
g45
sg29
g79
sg30
g56
sg31
F84992.0
sg32
g33
sg34
F434509511.00027424
sg35
g46
sg36
F0.00027426808424120715
ssS'BROWN MICHAEL'
p355
(dp356
g3
F1486.0
sg4
F0.0
sg5
g6
sg7
F49288.0
sg8
I00
sg9
g10
sg11
S'michael.brown@enron.com'
p357
sg13
F13.0
sg14
g15
sg16
g17
sg18
F761.0
sg19
g20
sg21
F41.0
sg22
g54
sg23
g24
sg25
g55
sg26
g83
sg27
F0.024390243902439025
sg28
F1.0
sg29
g79
sg30
g56
sg31
F49288.0
sg32
g33
sg34
F434509511.000159
sg35
F0.008748317631224764
sg36
F0.00015905173823513527
ssS'BADUM JAMES P'
p358
(dp359
g3
g39
sg4
F0.0005933517989206915
sg5
F178980.0
sg7
F3486.0
sg8
I00
sg9
g10
sg11
g40
sg13
g41
sg14
g15
sg16
g17
sg18
g42
sg19
g20
sg21
g43
sg22
g54
sg23
g24
sg25
g55
sg26
F257817.0
sg27
g44
sg28
g45
sg29
g79
sg30
g56
sg31
F182466.0
sg32
F257817.0
sg34
F434509511.0014208
sg35
g46
sg36
F0.0005888154209708691
ssS'HUGHES JAMES A'
p360
(dp361
g3
F719.0
sg4
F0.0025739229445773857
sg5
g6
sg7
g52
sg8
I00
sg9
g10
sg11
S'james.hughes@enron.com'
p362
sg13
F35.0
sg14
g15
sg16
g17
sg18
F589.0
sg19
g20
sg21
F34.0
sg22
g54
sg23
g24
sg25
g55
sg26
F1118394.0
sg27
F0.14705882352941177
sg28
F5.0
sg29
F363428.0
sg30
g56
sg31
g57
sg32
F754966.0
sg34
F434509511.00360906
sg35
F0.048678720445062586
sg36
F0.0
ssS'REYNOLDS LAWRENCE'
p363
(dp364
g3
g39
sg4
F0.009716452443776311
sg5
F51365.0
sg7
F8409.0
sg8
I00
sg9
F156250.0
sg11
g40
sg13
g41
sg14
F-200000.0
sg16
F-140264.0
sg18
g42
sg19
g20
sg21
g43
sg22
F202052.0
sg23
g24
sg25
F100000.0
sg26
F4221891.0
sg27
g44
sg28
g45
sg29
F201483.0
sg30
F76399.0
sg31
F394475.0
sg32
F4160672.0
sg34
F434509511.0148969
sg35
g46
sg36
F0.001272965720668418
ssS'DIMICHELE RICHARD G'
p365
(dp366
g3
g39
sg4
F0.01914292274260482
sg5
g6
sg7
F35812.0
sg8
I00
sg9
F694862.0
sg11
S'richard.dimichele@enron.com'
p367
sg13
g41
sg14
g15
sg16
g17
sg18
g42
sg19
g20
sg21
g43
sg22
F374689.0
sg23
g24
sg25
F1000000.0
sg26
F8317782.0
sg27
g44
sg28
g45
sg29
F126027.0
sg30
F262788.0
sg31
F2368151.0
sg32
F8191755.0
sg34
F434509511.0344834
sg35
g46
sg36
F0.007641992634176146
ssS'BHATNAGAR SANJAY'
p368
(dp369
g3
F523.0
sg4
F0.03557181053281938
sg5
g6
sg7
F137864.0
sg8
I00
sg9
g10
sg11
S'sanjay.bhatnagar@enron.com'
p370
sg13
F0.0
sg14
g15
sg16
F-2604490.0
sg18
F463.0
sg19
g20
sg21
F29.0
sg22
g54
sg23
g24
sg25
g55
sg26
F15456290.0
sg27
F0.034482758620689655
sg28
F1.0
sg29
F2604490.0
sg30
g56
sg31
F137864.0
sg32
F15456290.0
sg34
F434509511.0503221
sg35
F0.0
sg36
F0.00044488534410097163
ssS'CARTER REBECCA C'
p371
(dp372
g3
F312.0
sg4
F0.0
sg5
g6
sg7
g52
sg8
I00
sg9
F75000.0
sg11
S'rebecca.carter@enron.com'
p373
sg13
F29.0
sg14
F-159792.0
sg16
F-307301.0
sg18
F196.0
sg19
g20
sg21
F15.0
sg22
F540.0
sg23
g24
sg25
F300000.0
sg26
g83
sg27
F0.4666666666666667
sg28
F7.0
sg29
F307301.0
sg30
F261809.0
sg31
F477557.0
sg32
g33
sg34
F434509511.0015411
sg35
F0.09294871794871795
sg36
F0.0015410702596241783
ssS'BUCHANAN HAROLD G'
p374
(dp375
g3
F1088.0
sg4
F0.0023348280631767344
sg5
g6
sg7
F600.0
sg8
I00
sg9
F304805.0
sg11
S'john.buchanan@enron.com'
p376
sg13
F0.0
sg14
g15
sg16
g17
sg18
F23.0
sg19
g20
sg21
F125.0
sg22
F1215.0
sg23
g24
sg25
F500000.0
sg26
F1014505.0
sg27
F0.0
sg28
F0.0
sg29
F189041.0
sg30
F248017.0
sg31
F1054637.0
sg32
F825464.0
sg34
F434509511.0066771
sg35
F0.0
sg36
F0.003403299952464867
ssS'YEAP SOON'
p377
(dp378
g3
g39
sg4
F0.00044362204996704896
sg5
g6
sg7
F55097.0
sg8
I00
sg9
g10
sg11
g40
sg13
g41
sg14
g15
sg16
g17
sg18
g42
sg19
g20
sg21
g43
sg22
g54
sg23
g24
sg25
g55
sg26
F192758.0
sg27
g44
sg28
g45
sg29
g79
sg30
g56
sg31
F55097.0
sg32
F192758.0
sg34
F434509511.00079983
sg35
g46
sg36
F0.0001777973060692511
ssS'MURRAY JULIA H'
p379
(dp380
g3
F2192.0
sg4
F0.0013750239865290314
sg5
g6
sg7
F57580.0
sg8
I00
sg9
F125000.0
sg11
S'julia.murray@enron.com'
p381
sg13
F11.0
sg14
g15
sg16
g17
sg18
F395.0
sg19
g20
sg21
F45.0
sg22
F330.0
sg23
g24
sg25
F400000.0
sg26
F597461.0
sg27
F0.044444444444444446
sg28
F2.0
sg29
F196983.0
sg30
F229284.0
sg31
F812194.0
sg32
F400478.0
sg34
F434509511.00454897
sg35
F0.005018248175182482
sg36
F0.002620939528569783
ssS'GARLAND C KEVIN'
p382
(dp383
g3
F209.0
sg4
F0.0020624473741381465
sg5
g6
sg7
F48405.0
sg8
I00
sg9
F375304.0
sg11
S'kevin.garland@enron.com'
p384
sg13
F10.0
sg14
g15
sg16
g17
sg18
F178.0
sg19
g20
sg21
F44.0
sg22
F60814.0
sg23
g24
sg25
F850000.0
sg26
F896153.0
sg27
F0.6136363636363636
sg28
F27.0
sg29
F259907.0
sg30
F231946.0
sg31
F1566469.0
sg32
F636246.0
sg34
F434509511.00794685
sg35
F0.04784688995215311
sg36
F0.0050549751935857435
ssS'DODSON KEITH'
p385
(dp386
g3
F176.0
sg4
F0.0
sg5
g6
sg7
F28164.0
sg8
I00
sg9
g10
sg11
S'keith.dodson@enron.com'
p387
sg13
F10.0
sg14
g15
sg16
g17
sg18
F114.0
sg19
g20
sg21
F14.0
sg22
F774.0
sg23
g24
sg25
F70000.0
sg26
g83
sg27
F0.21428571428571427
sg28
F3.0
sg29
g79
sg30
F221003.0
sg31
F319941.0
sg32
g33
sg34
F434509511.0010325
sg35
F0.056818181818181816
sg36
F0.0010324454671053283
ssS'YEAGER F SCOTT'
p388
(dp389
g3
g39
sg4
F0.027352123944647096
sg5
g6
sg7
F53947.0
sg8
I01
sg9
g10
sg11
S'scott.yeager@enron.com'
p390
sg13
g41
sg14
g15
sg16
g17
sg18
g42
sg19
g20
sg21
g43
sg22
F147950.0
sg23
g24
sg25
g55
sg26
F11884758.0
sg27
g44
sg28
g45
sg29
F3576206.0
sg30
F158403.0
sg31
F360300.0
sg32
F8308552.0
sg34
F434509511.03951466
sg35
g46
sg36
F0.0011626834378777643
ssS'HIRKO JOSEPH'
p391
(dp392
g3
g39
sg4
F0.07080642246286756
sg5
F10259.0
sg7
F77978.0
sg8
I01
sg9
g10
sg11
S'joe.hirko@enron.com'
p393
sg13
g41
sg14
g15
sg16
g17
sg18
g42
sg19
g20
sg21
g43
sg22
F2856.0
sg23
g24
sg25
g55
sg26
F30766064.0
sg27
g44
sg28
g45
sg29
g79
sg30
g56
sg31
F91093.0
sg32
F30766064.0
sg34
F434509511.09957564
sg35
g46
sg36
F0.00029395593229697246
ssS'DIETRICH JANET R'
p394
(dp395
g3
F2572.0
sg4
F0.004292396260113165
sg5
g6
sg7
F3475.0
sg8
I00
sg9
F556416.0
sg11
S'janet.dietrich@enron.com'
p396
sg13
F305.0
sg14
g15
sg16
g17
sg18
F1902.0
sg19
g20
sg21
F63.0
sg22
F473.0
sg23
g24
sg25
F600000.0
sg26
F1865087.0
sg27
F0.2222222222222222
sg28
F14.0
sg29
F315068.0
sg30
F250100.0
sg31
F1410464.0
sg32
F1550019.0
sg34
F434509511.01057017
sg35
F0.11858475894245724
sg36
F0.004551549077221268
ssS'DERRICK JR. JAMES V'
p397
(dp398
g3
F2181.0
sg4
F0.020326167267717184
sg5
g6
sg7
F51124.0
sg8
I00
sg9
F484000.0
sg11
S'james.derrick@enron.com'
p399
sg13
F64.0
sg14
F-1284000.0
sg16
F-1787380.0
sg18
F1401.0
sg19
g20
sg21
F909.0
sg22
F7482.0
sg23
g24
sg25
F800000.0
sg26
F8831913.0
sg27
F0.022002200220022004
sg28
F20.0
sg29
F1787380.0
sg30
F492375.0
sg31
F550981.0
sg32
F8831913.0
sg34
F434509511.0302785
sg35
F0.029344337459880788
sg36
F0.001778008557550176
ssS'FREVERT MARK A'
p400
(dp401
g3
F3275.0
sg4
F0.033652163254948866
sg5
F6426990.0
sg7
F86987.0
sg8
I00
sg9
F1617011.0
sg11
S'mark.frevert@enron.com'
p402
sg13
F242.0
sg14
F-3367011.0
sg16
g17
sg18
F2979.0
sg19
F2000000.0
sg21
F21.0
sg22
F7427621.0
sg23
g24
sg25
F2000000.0
sg26
F14622185.0
sg27
F0.2857142857142857
sg28
F6.0
sg29
F4188667.0
sg30
F1060932.0
sg31
F17252530.0
sg32
F10433518.0
sg34
F434509511.1028593
sg35
F0.07389312977099237
sg36
F0.055673691069911914
ssS'PAI LOU L'
p403
(dp404
g3
g39
sg4
F0.05481567007632199
sg5
g6
sg7
F32047.0
sg8
I00
sg9
g10
sg11
S'lou.pai@enron.com'
p405
sg13
g41
sg14
g15
sg16
g17
sg18
g42
sg19
g20
sg21
g43
sg22
F1829457.0
sg23
g24
sg25
F1000000.0
sg26
F23817930.0
sg27
g44
sg28
g45
sg29
F8453763.0
sg30
F261879.0
sg31
F3123383.0
sg32
F15364167.0
sg34
F434509511.0869393
sg35
g46
sg36
F0.010079116525808951
ssS'BAY FRANKLIN R'
p406
(dp407
g3
g39
sg4
F0.0001450232927122279
sg5
F260455.0
sg7
F129142.0
sg8
I00
sg9
g10
sg11
S'frank.bay@enron.com'
p408
sg13
g41
sg14
F-201641.0
sg16
F-82782.0
sg18
g42
sg19
g20
sg21
g43
sg22
F69.0
sg23
g24
sg25
F400000.0
sg26
F63014.0
sg27
g44
sg28
g45
sg29
F145796.0
sg30
F239671.0
sg31
F827696.0
sg32
g33
sg34
F434509511.0028743
sg35
g46
sg36
F0.002670964281980777
ssS'HAYSLETT RODERICK J'
p409
(dp410
g3
F2649.0
sg4
F0.0007978260342384082
sg5
g6
sg7
g52
sg8
I00
sg9
g10
sg11
S'rod.hayslett@enron.com'
p411
sg13
F35.0
sg14
g15
sg16
g17
sg18
F571.0
sg19
g20
sg21
F1061.0
sg22
g54
sg23
g24
sg25
g55
sg26
F346663.0
sg27
F0.03581526861451461
sg28
F38.0
sg29
F346663.0
sg30
g56
sg31
g57
sg32
g33
sg34
F434509511.00111866
sg35
F0.01321253303133258
sg36
F0.0
ssS'FUGH JOHN L'
p412
(dp413
g3
g39
sg4
F0.00040592437112383484
sg5
F50591.0
sg7
g52
sg8
I00
sg9
g10
sg11
g40
sg13
g41
sg14
g15
sg16
g17
sg18
g42
sg19
g20
sg21
g43
sg22
g54
sg23
g24
sg25
g55
sg26
F176378.0
sg27
g44
sg28
g45
sg29
g79
sg30
g56
sg31
F50591.0
sg32
F176378.0
sg34
F434509511.0007324
sg35
g46
sg36
F0.00016325650237489307
ssS'FALLON JAMES B'
p414
(dp415
g3
F1755.0
sg4
F0.005367889403921472
sg5
g6
sg7
F95924.0
sg8
I00
sg9
F374347.0
sg11
S'jim.fallon@enron.com'
p416
sg13
F42.0
sg14
g15
sg16
g17
sg18
F1604.0
sg19
g20
sg21
F75.0
sg22
F401481.0
sg23
g24
sg25
F2500000.0
sg26
F2332399.0
sg27
F0.49333333333333335
sg28
F37.0
sg29
F1392142.0
sg30
F304588.0
sg31
F3676340.0
sg32
F940257.0
sg34
F434509511.0193901
sg35
F0.023931623931623933
sg36
F0.011863501609790562
ssS'KOENIG MARK E'
p417
(dp418
g3
F2374.0
sg4
F0.00441890212156944
sg5
g6
sg7
F127017.0
sg8
I01
sg9
F300000.0
sg11
S'mark.koenig@enron.com'
p419
sg13
F53.0
sg14
g15
sg16
g17
sg18
F2271.0
sg19
g20
sg21
F61.0
sg22
F150458.0
sg23
g24
sg25
F700000.0
sg26
F1920055.0
sg27
F0.2459016393442623
sg28
F15.0
sg29
F1248318.0
sg30
F309946.0
sg31
F1587421.0
sg32
F671737.0
sg34
F434509511.01131856
sg35
F0.02232518955349621
sg36
F0.005122587026476154
ssS'SAVAGE FRANK'
p420
(dp421
g3
g39
sg4
F0.0
sg5
g6
sg7
g52
sg8
I00
sg9
g10
sg11
g40
sg13
g41
sg14
F-121284.0
sg16
g17
sg18
g42
sg19
g20
sg21
g43
sg22
g54
sg23
F125034.0
sg25
g55
sg26
g83
sg27
g44
sg28
g45
sg29
g79
sg30
g56
sg31
F3750.0
sg32
g33
sg34
F434509511.0000121
sg35
g46
sg36
F1.2101201476662825e-05
ssS'IZZO LAWRENCE L'
p422
(dp423
g3
F496.0
sg4
F0.013394367332962707
sg5
g6
sg7
F28093.0
sg8
I00
sg9
F312500.0
sg11
S'larry.izzo@enron.com'
p424
sg13
F28.0
sg14
g15
sg16
g17
sg18
F437.0
sg19
g20
sg21
F19.0
sg22
F1553729.0
sg23
g24
sg25
g55
sg26
F5819980.0
sg27
F0.2631578947368421
sg28
F5.0
sg29
F3654808.0
sg30
F85274.0
sg31
F1979596.0
sg32
F2165172.0
sg34
F434509511.02516913
sg35
F0.056451612903225805
sg36
F0.006388130676905552
ssS'TILNEY ELIZABETH A'
p425
(dp426
g3
F460.0
sg4
F0.0026881851154691985
sg5
g6
sg7
g52
sg8
I00
sg9
F275000.0
sg11
S'elizabeth.tilney@enron.com'
p427
sg13
F10.0
sg14
F-575000.0
sg16
g17
sg18
F379.0
sg19
g20
sg21
F19.0
sg22
F152055.0
sg23
g24
sg25
F300000.0
sg26
F1168042.0
sg27
F0.5789473684210527
sg28
F11.0
sg29
F576792.0
sg30
F247338.0
sg31
F399393.0
sg32
F591250.0
sg34
F434509511.0050581
sg35
F0.021739130434782608
sg36
F0.001288836043031679
ssS'MARTIN AMANDA K'
p428
(dp429
g3
F1522.0
sg4
F0.004764696623637313
sg5
F85430.0
sg7
F8211.0
sg8
I00
sg9
F5145434.0
sg11
S'a..martin@enron.com'
p430
sg13
F8.0
sg14
g15
sg16
g17
sg18
F477.0
sg19
g20
sg21
F230.0
sg22
F2818454.0
sg23
g24
sg25
g55
sg26
F2070306.0
sg27
F0.0
sg28
F0.0
sg29
g79
sg30
F349487.0
sg31
F8407016.0
sg32
F2070306.0
sg34
F434509511.0338102
sg35
F0.005256241787122208
sg36
F0.0271293318489408
ssS'BUY RICHARD B'
p431
(dp432
g3
F3523.0
sg4
F0.007927260308002787
sg5
F649584.0
sg7
g52
sg8
I00
sg9
F769862.0
sg11
S'rick.buy@enron.com'
p433
sg13
F156.0
sg14
F-694862.0
sg16
g17
sg18
F2333.0
sg19
g20
sg21
F1053.0
sg22
F400572.0
sg23
g24
sg25
F900000.0
sg26
F3444470.0
sg27
F0.06742640075973409
sg28
F71.0
sg29
F901657.0
sg30
F330546.0
sg31
F2355702.0
sg32
F2542813.0
sg34
F434509511.01871705
sg35
F0.04428044280442804
sg36
F0.007601819872260686
ssS'GRAMM WENDY L'
p434
(dp435
g3
g39
sg4
F0.0
sg5
g6
sg7
g52
sg8
I00
sg9
g10
sg11
g40
sg13
g41
sg14
g15
sg16
g17
sg18
g42
sg19
g20
sg21
g43
sg22
g54
sg23
F119292.0
sg25
g55
sg26
g83
sg27
g44
sg28
g45
sg29
g79
sg30
g56
sg31
F119292.0
sg32
g33
sg34
F434509511.0003849
sg35
g46
sg36
F0.00038495374041441646
ssS'CAUSEY RICHARD A'
p436
(dp437
g3
F1892.0
sg4
F0.005758361869321659
sg5
g6
sg7
F30674.0
sg8
I01
sg9
F350000.0
sg11
S'richard.causey@enron.com'
p438
sg13
F58.0
sg14
F-235000.0
sg16
g17
sg18
F1585.0
sg19
g20
sg21
F49.0
sg22
F307895.0
sg23
g24
sg25
F1000000.0
sg26
F2502063.0
sg27
F0.24489795918367346
sg28
F12.0
sg29
F2502063.0
sg30
F415189.0
sg31
F1868758.0
sg32
g33
sg34
F434509511.0141046
sg35
F0.0306553911205074
sg36
F0.006030457885100125
ssS'TAYLOR MITCHELL S'
p439
(dp440
g3
F533.0
sg4
F0.00861902422200374
sg5
F227449.0
sg7
g52
sg8
I00
sg9
g10
sg11
S'mitchell.taylor@enron.com'
p441
sg13
F0.0
sg14
g15
sg16
g17
sg18
F300.0
sg19
g20
sg21
F29.0
sg22
g54
sg23
g24
sg25
F600000.0
sg26
F3745048.0
sg27
F0.0
sg28
F0.0
sg29
F563798.0
sg30
F265214.0
sg31
F1092663.0
sg32
F3181250.0
sg34
F434509511.01561123
sg35
F0.0
sg36
F0.0035260093624252887
ssS'DONAHUE JR JEFFREY M'
p442
(dp443
g3
F865.0
sg4
F0.002487835070657406
sg5
g6
sg7
F96268.0
sg8
I00
sg9
g10
sg11
S'jeff.donahue@enron.com'
p444
sg13
F188.0
sg14
F-300000.0
sg16
g17
sg18
F772.0
sg19
g20
sg21
F22.0
sg22
F891.0
sg23
g24
sg25
F800000.0
sg26
F1080988.0
sg27
F0.5
sg28
F11.0
sg29
F315068.0
sg30
F278601.0
sg31
F875760.0
sg32
F765920.0
sg34
F434509511.0063144
sg35
F0.21734104046242775
sg36
F0.0028260661880539295
ssS'GLISAN JR BEN F'
p445
(dp446
g3
F873.0
sg4
F0.0017917812620677018
sg5
g6
sg7
F125978.0
sg8
I01
sg9
F71023.0
sg11
S'ben.glisan@enron.com'
p447
sg13
F52.0
sg14
g15
sg16
g17
sg18
F874.0
sg19
g20
sg21
F16.0
sg22
F200308.0
sg23
g24
sg25
F600000.0
sg26
F778546.0
sg27
F0.375
sg28
F6.0
sg29
F393818.0
sg30
F274975.0
sg31
F1272284.0
sg32
F384728.0
sg34
F434509511.006618
sg35
F0.05956471935853379
sg36
F0.004105644005209196
ss.