(lp0
S'poi'
p1
aS'total_stock_value'
p2
aS'ratio_of_total_stock'
p3
aS'exercised_stock_options'
p4
aS'bonus'
p5
aS'salary'
p6
aS'ratio_to_poi'
p7
aS'deferred_income'
p8
aS'long_term_incentive'
p9
aS'total_payments'
p10
aS'ratio_of_total_payments'
p11
a.